target datalayout = "e-m:e-p270:32:32-p271:32:32-p272:64:64-i64:64-i128:128-f80:128-n8:16:32:64-S128"
target triple = "x86_64-pc-linux-gnu"

%struct.AVFilterContext = type { ptr, ptr, ptr, ptr, ptr, i32, ptr, ptr, i32, ptr, ptr, i32, i32, ptr, ptr, ptr, ptr, i32, ptr, i32, i32 }
%struct.DRMeterContext = type { ptr, ptr, i32, i64, double }
%struct.ChannelStats = type { i64, i64, float, float, [32769 x i32], [32769 x i32] }

@.str.7 = private unnamed_addr constant [40 x i8] c"No data, dynamic range not meassurable\0A\00", align 1
@.str.8 = private unnamed_addr constant [20 x i8] c"Channel %d: DR: %g\0A\00", align 1
@.str.9 = private unnamed_addr constant [16 x i8] c"Overall DR: %g\0A\00", align 1

; Function Attrs: alwaysinline nounwind willreturn memory(none) uwtable
define internal i32 @av_clip_c(i32 noundef %0, i32 noundef %1, i32 noundef %2) #5 {
  %4 = alloca i32, align 4
  %5 = alloca i32, align 4
  %6 = alloca i32, align 4
  %7 = alloca i32, align 4
  store i32 %0, ptr %5, align 4, !tbaa !41
  store i32 %1, ptr %6, align 4, !tbaa !41
  store i32 %2, ptr %7, align 4, !tbaa !41
  %8 = load i32, ptr %5, align 4, !tbaa !41
  %9 = load i32, ptr %6, align 4, !tbaa !41
  %10 = icmp slt i32 %8, %9
  br i1 %10, label %11, label %13

11:                                               ; preds = %3
  %12 = load i32, ptr %6, align 4, !tbaa !41
  store i32 %12, ptr %4, align 4
  br label %21

13:                                               ; preds = %3
  %14 = load i32, ptr %5, align 4, !tbaa !41
  %15 = load i32, ptr %7, align 4, !tbaa !41
  %16 = icmp sgt i32 %14, %15
  br i1 %16, label %17, label %19

17:                                               ; preds = %13
  %18 = load i32, ptr %7, align 4, !tbaa !41
  store i32 %18, ptr %4, align 4
  br label %21

19:                                               ; preds = %13
  %20 = load i32, ptr %5, align 4, !tbaa !41
  store i32 %20, ptr %4, align 4
  br label %21

21:                                               ; preds = %19, %17, %11
  %22 = load i32, ptr %4, align 4
  ret i32 %22
}

; Function Attrs: nounwind uwtable
define internal void @finish_block(ptr noundef %0) #1 {
  %2 = alloca ptr, align 8
  %3 = alloca i32, align 4
  %4 = alloca i32, align 4
  %5 = alloca float, align 4
  %6 = alloca float, align 4
  store ptr %0, ptr %2, align 8, !tbaa !44
  call void @llvm.lifetime.start.p0(i64 4, ptr %3) #6
  call void @llvm.lifetime.start.p0(i64 4, ptr %4) #6
  call void @llvm.lifetime.start.p0(i64 4, ptr %5) #6
  call void @llvm.lifetime.start.p0(i64 4, ptr %6) #6
  %7 = load ptr, ptr %2, align 8, !tbaa !44
  %8 = getelementptr inbounds nuw %struct.ChannelStats, ptr %7, i32 0, i32 3
  %9 = load float, ptr %8, align 4, !tbaa !64
  %10 = fmul nsz float 2.000000e+00, %9
  %11 = load ptr, ptr %2, align 8, !tbaa !44
  %12 = getelementptr inbounds nuw %struct.ChannelStats, ptr %11, i32 0, i32 0
  %13 = load i64, ptr %12, align 8, !tbaa !65
  %14 = uitofp i64 %13 to float
  %15 = fdiv nsz float %10, %14
  %16 = call nsz float @llvm.sqrt.f32(float %15)
  store float %16, ptr %6, align 4, !tbaa !54
  %17 = load ptr, ptr %2, align 8, !tbaa !44
  %18 = getelementptr inbounds nuw %struct.ChannelStats, ptr %17, i32 0, i32 2
  %19 = load float, ptr %18, align 8, !tbaa !62
  store float %19, ptr %5, align 4, !tbaa !54
  %20 = load float, ptr %6, align 4, !tbaa !54
  %21 = fmul nsz float %20, 3.276800e+04
  %22 = call i64 @llvm.lrint.i64.f32(float %21)
  %23 = trunc i64 %22 to i32
  %24 = call i32 @av_clip_c(i32 noundef %23, i32 noundef 0, i32 noundef 32768) #7
  store i32 %24, ptr %4, align 4, !tbaa !41
  %25 = load float, ptr %5, align 4, !tbaa !54
  %26 = fmul nsz float %25, 3.276800e+04
  %27 = call i64 @llvm.lrint.i64.f32(float %26)
  %28 = trunc i64 %27 to i32
  %29 = call i32 @av_clip_c(i32 noundef %28, i32 noundef 0, i32 noundef 32768) #7
  store i32 %29, ptr %3, align 4, !tbaa !41
  %30 = load ptr, ptr %2, align 8, !tbaa !44
  %31 = getelementptr inbounds nuw %struct.ChannelStats, ptr %30, i32 0, i32 5
  %32 = load i32, ptr %4, align 4, !tbaa !41
  %33 = sext i32 %32 to i64
  %34 = getelementptr inbounds [32769 x i32], ptr %31, i64 0, i64 %33
  %35 = load i32, ptr %34, align 4, !tbaa !41
  %36 = add i32 %35, 1
  store i32 %36, ptr %34, align 4, !tbaa !41
  %37 = load ptr, ptr %2, align 8, !tbaa !44
  %38 = getelementptr inbounds nuw %struct.ChannelStats, ptr %37, i32 0, i32 4
  %39 = load i32, ptr %3, align 4, !tbaa !41
  %40 = sext i32 %39 to i64
  %41 = getelementptr inbounds [32769 x i32], ptr %38, i64 0, i64 %40
  %42 = load i32, ptr %41, align 4, !tbaa !41
  %43 = add i32 %42, 1
  store i32 %43, ptr %41, align 4, !tbaa !41
  %44 = load ptr, ptr %2, align 8, !tbaa !44
  %45 = getelementptr inbounds nuw %struct.ChannelStats, ptr %44, i32 0, i32 2
  store float 0.000000e+00, ptr %45, align 8, !tbaa !62
  %46 = load ptr, ptr %2, align 8, !tbaa !44
  %47 = getelementptr inbounds nuw %struct.ChannelStats, ptr %46, i32 0, i32 3
  store float 0.000000e+00, ptr %47, align 4, !tbaa !64
  %48 = load ptr, ptr %2, align 8, !tbaa !44
  %49 = getelementptr inbounds nuw %struct.ChannelStats, ptr %48, i32 0, i32 0
  store i64 0, ptr %49, align 8, !tbaa !65
  %50 = load ptr, ptr %2, align 8, !tbaa !44
  %51 = getelementptr inbounds nuw %struct.ChannelStats, ptr %50, i32 0, i32 1
  %52 = load i64, ptr %51, align 8, !tbaa !67
  %53 = add i64 %52, 1
  store i64 %53, ptr %51, align 8, !tbaa !67
  call void @llvm.lifetime.end.p0(i64 4, ptr %6) #6
  call void @llvm.lifetime.end.p0(i64 4, ptr %5) #6
  call void @llvm.lifetime.end.p0(i64 4, ptr %4) #6
  call void @llvm.lifetime.end.p0(i64 4, ptr %3) #6
  ret void
}

; Function Attrs: nounwind uwtable
define internal void @print_stats(ptr noundef %0) #1 {
  %2 = alloca ptr, align 8
  %3 = alloca ptr, align 8
  %4 = alloca float, align 4
  %5 = alloca i32, align 4
  %6 = alloca i32, align 4
  %7 = alloca ptr, align 8
  %8 = alloca float, align 4
  %9 = alloca float, align 4
  %10 = alloca float, align 4
  %11 = alloca i32, align 4
  %12 = alloca i32, align 4
  %13 = alloca i32, align 4
  %14 = alloca i32, align 4
  %15 = alloca i64, align 8
  %16 = alloca i64, align 8
  store ptr %0, ptr %2, align 8, !tbaa !4
  call void @llvm.lifetime.start.p0(i64 8, ptr %3) #6
  %17 = load ptr, ptr %2, align 8, !tbaa !4
  %18 = getelementptr inbounds nuw %struct.AVFilterContext, ptr %17, i32 0, i32 9
  %19 = load ptr, ptr %18, align 8, !tbaa !9
  store ptr %19, ptr %3, align 8, !tbaa !22
  call void @llvm.lifetime.start.p0(i64 4, ptr %4) #6
  store float 0.000000e+00, ptr %4, align 4, !tbaa !54
  call void @llvm.lifetime.start.p0(i64 4, ptr %5) #6
  store i32 0, ptr %5, align 4, !tbaa !41
  br label %20

20:                                               ; preds = %157, %1
  %21 = load i32, ptr %5, align 4, !tbaa !41
  %22 = load ptr, ptr %3, align 8, !tbaa !22
  %23 = getelementptr inbounds nuw %struct.DRMeterContext, ptr %22, i32 0, i32 2
  %24 = load i32, ptr %23, align 8, !tbaa !24
  %25 = icmp slt i32 %21, %24
  br i1 %25, label %27, label %26

26:                                               ; preds = %20
  store i32 2, ptr %6, align 4
  br label %160

27:                                               ; preds = %20
  call void @llvm.lifetime.start.p0(i64 8, ptr %7) #6
  %28 = load ptr, ptr %3, align 8, !tbaa !22
  %29 = getelementptr inbounds nuw %struct.DRMeterContext, ptr %28, i32 0, i32 1
  %30 = load ptr, ptr %29, align 8, !tbaa !43
  %31 = load i32, ptr %5, align 4, !tbaa !41
  %32 = sext i32 %31 to i64
  %33 = getelementptr inbounds %struct.ChannelStats, ptr %30, i64 %32
  store ptr %33, ptr %7, align 8, !tbaa !44
  call void @llvm.lifetime.start.p0(i64 4, ptr %8) #6
  call void @llvm.lifetime.start.p0(i64 4, ptr %9) #6
  call void @llvm.lifetime.start.p0(i64 4, ptr %10) #6
  store float 0.000000e+00, ptr %10, align 4, !tbaa !54
  call void @llvm.lifetime.start.p0(i64 4, ptr %11) #6
  store i32 0, ptr %11, align 4, !tbaa !41
  call void @llvm.lifetime.start.p0(i64 4, ptr %12) #6
  %34 = load ptr, ptr %7, align 8, !tbaa !44
  %35 = getelementptr inbounds nuw %struct.ChannelStats, ptr %34, i32 0, i32 1
  %36 = load i64, ptr %35, align 8, !tbaa !67
  %37 = uitofp i64 %36 to float
  %38 = fmul nsz float 0x3FC99999A0000000, %37
  %39 = call i64 @llvm.lrint.i64.f32(float %38)
  %40 = trunc i64 %39 to i32
  store i32 %40, ptr %12, align 4, !tbaa !41
  call void @llvm.lifetime.start.p0(i64 4, ptr %13) #6
  store i32 32768, ptr %13, align 4, !tbaa !41
  %41 = load ptr, ptr %7, align 8, !tbaa !44
  %42 = getelementptr inbounds nuw %struct.ChannelStats, ptr %41, i32 0, i32 0
  %43 = load i64, ptr %42, align 8, !tbaa !65
  %44 = icmp ne i64 %43, 0
  br i1 %44, label %47, label %45

45:                                               ; preds = %27
  %46 = load ptr, ptr %2, align 8, !tbaa !4
  call void (ptr, i32, ptr, ...) @av_log(ptr noundef %46, i32 noundef 32, ptr noundef @.str.7)
  store i32 1, ptr %6, align 4
  br label %154

47:                                               ; preds = %27
  %48 = load ptr, ptr %7, align 8, !tbaa !44
  %49 = getelementptr inbounds nuw %struct.ChannelStats, ptr %48, i32 0, i32 0
  %50 = load i64, ptr %49, align 8, !tbaa !65
  %51 = icmp ne i64 %50, 0
  br i1 %51, label %52, label %54

52:                                               ; preds = %47
  %53 = load ptr, ptr %7, align 8, !tbaa !44
  call void @finish_block(ptr noundef %53)
  br label %54

54:                                               ; preds = %52, %47
  call void @llvm.lifetime.start.p0(i64 4, ptr %14) #6
  store i32 32768, ptr %14, align 4, !tbaa !41
  br label %55

55:                                               ; preds = %82, %54
  %56 = load i32, ptr %14, align 4, !tbaa !41
  %57 = icmp sge i32 %56, 0
  br i1 %57, label %59, label %58

58:                                               ; preds = %55
  store i32 5, ptr %6, align 4
  br label %85

59:                                               ; preds = %55
  %60 = load ptr, ptr %7, align 8, !tbaa !44
  %61 = getelementptr inbounds nuw %struct.ChannelStats, ptr %60, i32 0, i32 4
  %62 = load i32, ptr %14, align 4, !tbaa !41
  %63 = sext i32 %62 to i64
  %64 = getelementptr inbounds [32769 x i32], ptr %61, i64 0, i64 %63
  %65 = load i32, ptr %64, align 4, !tbaa !41
  %66 = icmp ne i32 %65, 0
  br i1 %66, label %67, label %81

67:                                               ; preds = %59
  %68 = load i32, ptr %11, align 4, !tbaa !41
  %69 = icmp ne i32 %68, 0
  br i1 %69, label %78, label %70

70:                                               ; preds = %67
  %71 = load ptr, ptr %7, align 8, !tbaa !44
  %72 = getelementptr inbounds nuw %struct.ChannelStats, ptr %71, i32 0, i32 4
  %73 = load i32, ptr %14, align 4, !tbaa !41
  %74 = sext i32 %73 to i64
  %75 = getelementptr inbounds [32769 x i32], ptr %72, i64 0, i64 %74
  %76 = load i32, ptr %75, align 4, !tbaa !41
  %77 = icmp ugt i32 %76, 1
  br i1 %77, label %78, label %80

78:                                               ; preds = %70, %67
  %79 = load i32, ptr %14, align 4, !tbaa !41
  store i32 %79, ptr %13, align 4, !tbaa !41
  store i32 5, ptr %6, align 4
  br label %85

80:                                               ; preds = %70
  store i32 1, ptr %11, align 4, !tbaa !41
  br label %81

81:                                               ; preds = %80, %59
  br label %82

82:                                               ; preds = %81
  %83 = load i32, ptr %14, align 4, !tbaa !41
  %84 = add nsw i32 %83, -1
  store i32 %84, ptr %14, align 4, !tbaa !41
  br label %55, !llvm.loop !72

85:                                               ; preds = %78, %58
  call void @llvm.lifetime.end.p0(i64 4, ptr %14) #6
  br label %86

86:                                               ; preds = %85
  %87 = load i32, ptr %13, align 4, !tbaa !41
  %88 = sitofp i32 %87 to float
  %89 = fdiv nsz float %88, 3.276800e+04
  store float %89, ptr %9, align 4, !tbaa !54
  call void @llvm.lifetime.start.p0(i64 8, ptr %15) #6
  store i64 32768, ptr %15, align 8, !tbaa !73
  call void @llvm.lifetime.start.p0(i64 8, ptr %16) #6
  store i64 0, ptr %16, align 8, !tbaa !73
  br label %90

90:                                               ; preds = %133, %86
  %91 = load i64, ptr %15, align 8, !tbaa !73
  %92 = icmp sge i64 %91, 0
  br i1 %92, label %93, label %98

93:                                               ; preds = %90
  %94 = load i64, ptr %16, align 8, !tbaa !73
  %95 = load i32, ptr %12, align 4, !tbaa !41
  %96 = sext i32 %95 to i64
  %97 = icmp slt i64 %94, %96
  br label %98

98:                                               ; preds = %93, %90
  %99 = phi i1 [ false, %90 ], [ %97, %93 ]
  br i1 %99, label %101, label %100

100:                                              ; preds = %98
  store i32 8, ptr %6, align 4
  call void @llvm.lifetime.end.p0(i64 8, ptr %16) #6
  call void @llvm.lifetime.end.p0(i64 8, ptr %15) #6
  br label %136

101:                                              ; preds = %98
  %102 = load ptr, ptr %7, align 8, !tbaa !44
  %103 = getelementptr inbounds nuw %struct.ChannelStats, ptr %102, i32 0, i32 5
  %104 = load i64, ptr %15, align 8, !tbaa !73
  %105 = getelementptr inbounds [32769 x i32], ptr %103, i64 0, i64 %104
  %106 = load i32, ptr %105, align 4, !tbaa !41
  %107 = icmp ne i32 %106, 0
  br i1 %107, label %108, label %132

108:                                              ; preds = %101
  %109 = load i64, ptr %15, align 8, !tbaa !73
  %110 = sitofp i64 %109 to float
  %111 = fdiv nsz float %110, 3.276800e+04
  %112 = load i64, ptr %15, align 8, !tbaa !73
  %113 = sitofp i64 %112 to float
  %114 = fdiv nsz float %113, 3.276800e+04
  %115 = fmul nsz float %111, %114
  %116 = load ptr, ptr %7, align 8, !tbaa !44
  %117 = getelementptr inbounds nuw %struct.ChannelStats, ptr %116, i32 0, i32 5
  %118 = load i64, ptr %15, align 8, !tbaa !73
  %119 = getelementptr inbounds [32769 x i32], ptr %117, i64 0, i64 %118
  %120 = load i32, ptr %119, align 4, !tbaa !41
  %121 = uitofp i32 %120 to float
  %122 = load float, ptr %10, align 4, !tbaa !54
  %123 = call nsz float @llvm.fmuladd.f32(float %115, float %121, float %122)
  store float %123, ptr %10, align 4, !tbaa !54
  %124 = load ptr, ptr %7, align 8, !tbaa !44
  %125 = getelementptr inbounds nuw %struct.ChannelStats, ptr %124, i32 0, i32 5
  %126 = load i64, ptr %15, align 8, !tbaa !73
  %127 = getelementptr inbounds [32769 x i32], ptr %125, i64 0, i64 %126
  %128 = load i32, ptr %127, align 4, !tbaa !41
  %129 = zext i32 %128 to i64
  %130 = load i64, ptr %16, align 8, !tbaa !73
  %131 = add nsw i64 %130, %129
  store i64 %131, ptr %16, align 8, !tbaa !73
  br label %132

132:                                              ; preds = %108, %101
  br label %133

133:                                              ; preds = %132
  %134 = load i64, ptr %15, align 8, !tbaa !73
  %135 = add nsw i64 %134, -1
  store i64 %135, ptr %15, align 8, !tbaa !73
  br label %90, !llvm.loop !74

136:                                              ; preds = %100
  %137 = load float, ptr %9, align 4, !tbaa !54
  %138 = load float, ptr %10, align 4, !tbaa !54
  %139 = load i32, ptr %12, align 4, !tbaa !41
  %140 = sitofp i32 %139 to float
  %141 = fdiv nsz float %138, %140
  %142 = call nsz float @llvm.sqrt.f32(float %141)
  %143 = fdiv nsz float %137, %142
  %144 = call nsz float @llvm.log10.f32(float %143)
  %145 = fmul nsz float 2.000000e+01, %144
  store float %145, ptr %8, align 4, !tbaa !54
  %146 = load float, ptr %8, align 4, !tbaa !54
  %147 = load float, ptr %4, align 4, !tbaa !54
  %148 = fadd nsz float %147, %146
  store float %148, ptr %4, align 4, !tbaa !54
  %149 = load ptr, ptr %2, align 8, !tbaa !4
  %150 = load i32, ptr %5, align 4, !tbaa !41
  %151 = add nsw i32 %150, 1
  %152 = load float, ptr %8, align 4, !tbaa !54
  %153 = fpext nsz float %152 to double
  call void (ptr, i32, ptr, ...) @av_log(ptr noundef %149, i32 noundef 32, ptr noundef @.str.8, i32 noundef %151, double noundef %153)
  store i32 0, ptr %6, align 4
  br label %154

154:                                              ; preds = %136, %45
  call void @llvm.lifetime.end.p0(i64 4, ptr %13) #6
  call void @llvm.lifetime.end.p0(i64 4, ptr %12) #6
  call void @llvm.lifetime.end.p0(i64 4, ptr %11) #6
  call void @llvm.lifetime.end.p0(i64 4, ptr %10) #6
  call void @llvm.lifetime.end.p0(i64 4, ptr %9) #6
  call void @llvm.lifetime.end.p0(i64 4, ptr %8) #6
  call void @llvm.lifetime.end.p0(i64 8, ptr %7) #6
  %155 = load i32, ptr %6, align 4
  switch i32 %155, label %160 [
    i32 0, label %156
  ]

156:                                              ; preds = %154
  br label %157

157:                                              ; preds = %156
  %158 = load i32, ptr %5, align 4, !tbaa !41
  %159 = add nsw i32 %158, 1
  store i32 %159, ptr %5, align 4, !tbaa !41
  br label %20, !llvm.loop !75

160:                                              ; preds = %154, %26
  call void @llvm.lifetime.end.p0(i64 4, ptr %5) #6
  %161 = load i32, ptr %6, align 4
  switch i32 %161, label %171 [
    i32 2, label %162
  ]

162:                                              ; preds = %160
  %163 = load ptr, ptr %2, align 8, !tbaa !4
  %164 = load float, ptr %4, align 4, !tbaa !54
  %165 = load ptr, ptr %3, align 8, !tbaa !22
  %166 = getelementptr inbounds nuw %struct.DRMeterContext, ptr %165, i32 0, i32 2
  %167 = load i32, ptr %166, align 8, !tbaa !24
  %168 = sitofp i32 %167 to float
  %169 = fdiv nsz float %164, %168
  %170 = fpext nsz float %169 to double
  call void (ptr, i32, ptr, ...) @av_log(ptr noundef %163, i32 noundef 32, ptr noundef @.str.9, double noundef %170)
  store i32 0, ptr %6, align 4
  br label %171

171:                                              ; preds = %162, %160
  call void @llvm.lifetime.end.p0(i64 4, ptr %4) #6
  call void @llvm.lifetime.end.p0(i64 8, ptr %3) #6
  %172 = load i32, ptr %6, align 4
  switch i32 %172, label %174 [
    i32 0, label %173
    i32 1, label %173
  ]

173:                                              ; preds = %171, %171
  ret void

174:                                              ; preds = %171
  unreachable
}

; Function Attrs: cold nounwind optsize uwtable
define internal void @uninit(ptr noundef %0) #0 {
  %2 = alloca ptr, align 8
  %3 = alloca ptr, align 8
  store ptr %0, ptr %2, align 8, !tbaa !4
  call void @llvm.lifetime.start.p0(i64 8, ptr %3) #6
  %4 = load ptr, ptr %2, align 8, !tbaa !4
  %5 = getelementptr inbounds nuw %struct.AVFilterContext, ptr %4, i32 0, i32 9
  %6 = load ptr, ptr %5, align 8, !tbaa !9
  store ptr %6, ptr %3, align 8, !tbaa !22
  %7 = load ptr, ptr %3, align 8, !tbaa !22
  %8 = getelementptr inbounds nuw %struct.DRMeterContext, ptr %7, i32 0, i32 2
  %9 = load i32, ptr %8, align 8, !tbaa !24
  %10 = icmp ne i32 %9, 0
  br i1 %10, label %11, label %13

11:                                               ; preds = %1
  %12 = load ptr, ptr %2, align 8, !tbaa !4
  call void @print_stats(ptr noundef %12)
  br label %13

13:                                               ; preds = %11, %1
  %14 = load ptr, ptr %3, align 8, !tbaa !22
  %15 = getelementptr inbounds nuw %struct.DRMeterContext, ptr %14, i32 0, i32 1
  call void @av_freep(ptr noundef %15)
  call void @llvm.lifetime.end.p0(i64 8, ptr %3) #6
  ret void
}