; Function Attrs: cold nounwind optsize uwtable
define internal void @uninit(ptr noundef %0) #0 {
  %2 = getelementptr inbounds nuw i8, ptr %0, i64 72
  %3 = load ptr, ptr %2, align 8, !tbaa !4
  %4 = getelementptr inbounds nuw i8, ptr %3, i64 16
  %5 = load i32, ptr %4, align 8, !tbaa !20
  %.not = icmp eq i32 %5, 0
  br i1 %.not, label %print_stats.exit, label %6

6:                                                ; preds = %1
  %.not79.i = icmp sgt i32 %5, 0
  br i1 %.not79.i, label %.lr.ph83.i, label %.thread68.i

.lr.ph83.i:                                       ; preds = %6
  %7 = getelementptr inbounds nuw i8, ptr %3, i64 8
  br label %8

8:                                                ; preds = %._crit_edge.i, %.lr.ph83.i
  %indvars.iv87.i = phi i64 [ 0, %.lr.ph83.i ], [ %indvars.iv.next88.i, %._crit_edge.i ]
  %.05081.i = phi float [ 0.000000e+00, %.lr.ph83.i ], [ %82, %._crit_edge.i ]
  %9 = load ptr, ptr %7, align 8, !tbaa !25
  %10 = getelementptr inbounds nuw %struct.ChannelStats, ptr %9, i64 %indvars.iv87.i
  %11 = getelementptr inbounds nuw i8, ptr %10, i64 8
  %12 = load i64, ptr %11, align 8, !tbaa !26
  %13 = uitofp i64 %12 to float
  %14 = fmul nsz float %13, 0x3FC99999A0000000
  %15 = tail call i64 @llvm.lrint.i64.f32(float %14)
  %16 = trunc i64 %15 to i32
  %17 = load i64, ptr %10, align 8, !tbaa !29
  %.not.not.i = icmp eq i64 %17, 0
  br i1 %.not.not.i, label %.thread66.i, label %18

.thread66.i:                                      ; preds = %8
  tail call void (ptr, i32, ptr, ...) @av_log(ptr noundef %0, i32 noundef 32, ptr noundef nonnull @.str.7) #5
  br label %print_stats.exit

18:                                               ; preds = %8
  %19 = getelementptr inbounds nuw i8, ptr %10, i64 20
  %20 = load float, ptr %19, align 4, !tbaa !30
  %21 = fmul nsz float %20, 2.000000e+00
  %22 = uitofp i64 %17 to float
  %23 = fdiv nsz float %21, %22
  %24 = tail call nsz float @llvm.sqrt.f32(float %23)
  %25 = getelementptr inbounds nuw i8, ptr %10, i64 16
  %26 = load float, ptr %25, align 8, !tbaa !31
  %27 = fmul nsz float %24, 3.276800e+04
  %28 = tail call i64 @llvm.lrint.i64.f32(float %27)
  %29 = trunc i64 %28 to i32
  %30 = tail call i32 @llvm.smax.i32(i32 %29, i32 0)
  %31 = tail call i32 @llvm.umin.i32(i32 %30, i32 32768)
  %32 = fmul nsz float %26, 3.276800e+04
  %33 = tail call i64 @llvm.lrint.i64.f32(float %32)
  %34 = trunc i64 %33 to i32
  %35 = tail call i32 @llvm.smax.i32(i32 %34, i32 0)
  %36 = tail call i32 @llvm.umin.i32(i32 %35, i32 32768)
  %37 = getelementptr inbounds nuw i8, ptr %10, i64 131100
  %38 = zext nneg i32 %31 to i64
  %39 = getelementptr inbounds nuw [32769 x i32], ptr %37, i64 0, i64 %38
  %40 = load i32, ptr %39, align 4, !tbaa !32
  %41 = add i32 %40, 1
  store i32 %41, ptr %39, align 4, !tbaa !32
  %42 = getelementptr inbounds nuw i8, ptr %10, i64 24
  %43 = zext nneg i32 %36 to i64
  %44 = getelementptr inbounds nuw [32769 x i32], ptr %42, i64 0, i64 %43
  %45 = load i32, ptr %44, align 4, !tbaa !32
  %46 = add i32 %45, 1
  store i32 %46, ptr %44, align 4, !tbaa !32
  store float 0.000000e+00, ptr %25, align 8, !tbaa !31
  store float 0.000000e+00, ptr %19, align 4, !tbaa !30
  store i64 0, ptr %10, align 8, !tbaa !29
  %47 = add i64 %12, 1
  store i64 %47, ptr %11, align 8, !tbaa !26
  br label %48

48:                                               ; preds = %56, %18
  %indvars.iv.i = phi i64 [ 32768, %18 ], [ %indvars.iv.next.i, %56 ]
  %.05274.i = phi i32 [ 0, %18 ], [ %.153.i, %56 ]
  %49 = getelementptr inbounds nuw [32769 x i32], ptr %42, i64 0, i64 %indvars.iv.i
  %50 = load i32, ptr %49, align 4, !tbaa !32
  %.not61.i = icmp eq i32 %50, 0
  br i1 %.not61.i, label %56, label %51

51:                                               ; preds = %48
  %.not62.i = icmp eq i32 %.05274.i, 0
  %.not63.i = icmp eq i32 %50, 1
  %or.cond.i = and i1 %.not62.i, %.not63.i
  br i1 %or.cond.i, label %56, label %52

52:                                               ; preds = %51
  %53 = trunc nuw nsw i64 %indvars.iv.i to i32
  %54 = uitofp nneg i32 %53 to float
  %55 = fmul nsz float %54, 0x3F00000000000000
  br label %.loopexit.i

56:                                               ; preds = %51, %48
  %.153.i = phi i32 [ %.05274.i, %48 ], [ 1, %51 ]
  %indvars.iv.next.i = add nsw i64 %indvars.iv.i, -1
  %.not90.i = icmp eq i64 %indvars.iv.i, 0
  br i1 %.not90.i, label %.loopexit.i, label %48, !llvm.loop !33

.loopexit.i:                                      ; preds = %56, %52
  %.049.i = phi float [ %55, %52 ], [ 1.000000e+00, %56 ]
  %sext.i = shl i64 %15, 32
  %57 = ashr exact i64 %sext.i, 32
  %58 = icmp sgt i64 %57, 0
  br i1 %58, label %.lr.ph.i, label %._crit_edge.i

.lr.ph.i:                                         ; preds = %.loopexit.i, %69
  %.078.i = phi i64 [ %.1.i, %69 ], [ 0, %.loopexit.i ]
  %.04777.i = phi i64 [ %70, %69 ], [ 32768, %.loopexit.i ]
  %.05476.i = phi float [ %.155.i, %69 ], [ 0.000000e+00, %.loopexit.i ]
  %59 = getelementptr inbounds nuw [32769 x i32], ptr %37, i64 0, i64 %.04777.i
  %60 = load i32, ptr %59, align 4, !tbaa !32
  %.not64.i = icmp eq i32 %60, 0
  br i1 %.not64.i, label %69, label %61

61:                                               ; preds = %.lr.ph.i
  %62 = uitofp nneg i64 %.04777.i to float
  %63 = fmul nsz float %62, 0x3F00000000000000
  %64 = fmul nsz float %63, %63
  %65 = uitofp i32 %60 to float
  %66 = tail call nsz float @llvm.fmuladd.f32(float %64, float %65, float %.05476.i)
  %67 = zext i32 %60 to i64
  %68 = add nsw i64 %.078.i, %67
  br label %69

69:                                               ; preds = %61, %.lr.ph.i
  %.155.i = phi nsz float [ %66, %61 ], [ %.05476.i, %.lr.ph.i ]
  %.1.i = phi i64 [ %68, %61 ], [ %.078.i, %.lr.ph.i ]
  %70 = add nsw i64 %.04777.i, -1
  %71 = icmp ne i64 %.04777.i, 0
  %72 = icmp slt i64 %.1.i, %57
  %73 = select i1 %71, i1 %72, i1 false
  br i1 %73, label %.lr.ph.i, label %._crit_edge.i, !llvm.loop !35

._crit_edge.i:                                    ; preds = %69, %.loopexit.i
  %.054.lcssa.i = phi float [ 0.000000e+00, %.loopexit.i ], [ %.155.i, %69 ]
  %74 = sitofp i32 %16 to float
  %75 = fdiv nsz float %.054.lcssa.i, %74
  %76 = tail call nsz float @llvm.sqrt.f32(float %75)
  %77 = fdiv nsz float %.049.i, %76
  %78 = tail call nsz float @llvm.log10.f32(float %77)
  %79 = fmul nsz float %78, 2.000000e+01
  %indvars.iv.next88.i = add nuw nsw i64 %indvars.iv87.i, 1
  %80 = fpext nsz float %79 to double
  %81 = trunc nuw nsw i64 %indvars.iv.next88.i to i32
  tail call void (ptr, i32, ptr, ...) @av_log(ptr noundef %0, i32 noundef 32, ptr noundef nonnull @.str.8, i32 noundef %81, double noundef %80) #5
  %82 = fadd nsz float %.05081.i, %79
  %83 = load i32, ptr %4, align 8, !tbaa !20
  %84 = sext i32 %83 to i64
  %.not.i = icmp slt i64 %indvars.iv.next88.i, %84
  br i1 %.not.i, label %8, label %.thread68.i, !llvm.loop !36

.thread68.i:                                      ; preds = %._crit_edge.i, %6
  %85 = phi i32 [ %5, %6 ], [ %83, %._crit_edge.i ]
  %.050.lcssa.i = phi float [ 0.000000e+00, %6 ], [ %82, %._crit_edge.i ]
  %86 = sitofp i32 %85 to float
  %87 = fdiv nsz float %.050.lcssa.i, %86
  %88 = fpext nsz float %87 to double
  tail call void (ptr, i32, ptr, ...) @av_log(ptr noundef %0, i32 noundef 32, ptr noundef nonnull @.str.9, double noundef %88) #5
  br label %print_stats.exit

print_stats.exit:                                 ; preds = %.thread68.i, %.thread66.i, %1
  %89 = getelementptr inbounds nuw i8, ptr %3, i64 8
  tail call void @av_freep(ptr noundef nonnull %89) #5
  ret void
}